; ModuleID = '17/254.c'
source_filename = "17/254.c"
target datalayout = "e-m:e-p270:32:32-p271:32:32-p272:64:64-i64:64-f80:128-n8:16:32:64-S128"
target triple = "x86_64-pc-linux-gnu"

@.str = private unnamed_addr constant [2 x i8] c"$\00", align 1
@.str.1 = private unnamed_addr constant [2 x i8] c"?\00", align 1
@.str.2 = private unnamed_addr constant [3 x i8] c"%c\00", align 1
@.str.3 = private unnamed_addr constant [2 x i8] c"\0A\00", align 1

; Function Attrs: noinline nounwind uwtable
define dso_local i32 @main() #0 {
  %1 = alloca i32, align 4
  %2 = alloca [1000 x i8], align 16
  %3 = alloca i32, align 4
  %4 = alloca i32, align 4
  %5 = alloca i32, align 4
  %6 = alloca i32, align 4
  store i32 0, i32* %1, align 4
  br label %7

7:                                                ; preds = %0, %153
  %8 = getelementptr inbounds [1000 x i8], [1000 x i8]* %2, i64 0, i64 0
  %9 = call i32 (i8*, ...) bitcast (i32 (...)* @gets to i32 (i8*, ...)*)(i8* %8)
  %10 = getelementptr inbounds [1000 x i8], [1000 x i8]* %2, i64 0, i64 0
  %11 = load i8, i8* %10, align 16
  %12 = sext i8 %11 to i32
  %13 = icmp eq i32 %12, 0
  br i1 %13, label %14, label %15

14:                                               ; preds = %7
  br label %154

15:                                               ; preds = %7
  %16 = getelementptr inbounds [1000 x i8], [1000 x i8]* %2, i64 0, i64 0
  %17 = call i32 @puts(i8* %16)
  %18 = getelementptr inbounds [1000 x i8], [1000 x i8]* %2, i64 0, i64 0
  %19 = call i64 @strlen(i8* %18) #3
  %20 = trunc i64 %19 to i32
  store i32 %20, i32* %3, align 4
  store i32 0, i32* %4, align 4
  br label %21

21:                                               ; preds = %102, %15
  %22 = load i32, i32* %4, align 4
  %23 = load i32, i32* %3, align 4
  %24 = icmp slt i32 %22, %23
  br i1 %24, label %25, label %105

25:                                               ; preds = %21
  %26 = load i32, i32* %4, align 4
  %27 = sext i32 %26 to i64
  %28 = getelementptr inbounds [1000 x i8], [1000 x i8]* %2, i64 0, i64 %27
  %29 = load i8, i8* %28, align 1
  %30 = sext i8 %29 to i32
  %31 = icmp eq i32 %30, 32
  br i1 %31, label %32, label %33

32:                                               ; preds = %25
  br label %102

33:                                               ; preds = %25
  %34 = load i32, i32* %4, align 4
  %35 = sext i32 %34 to i64
  %36 = getelementptr inbounds [1000 x i8], [1000 x i8]* %2, i64 0, i64 %35
  %37 = load i8, i8* %36, align 1
  %38 = sext i8 %37 to i32
  %39 = icmp ne i32 %38, 40
  br i1 %39, label %40, label %51

40:                                               ; preds = %33
  %41 = load i32, i32* %4, align 4
  %42 = sext i32 %41 to i64
  %43 = getelementptr inbounds [1000 x i8], [1000 x i8]* %2, i64 0, i64 %42
  %44 = load i8, i8* %43, align 1
  %45 = sext i8 %44 to i32
  %46 = icmp ne i32 %45, 41
  br i1 %46, label %47, label %51

47:                                               ; preds = %40
  %48 = load i32, i32* %4, align 4
  %49 = sext i32 %48 to i64
  %50 = getelementptr inbounds [1000 x i8], [1000 x i8]* %2, i64 0, i64 %49
  store i8 32, i8* %50, align 1
  br label %101

51:                                               ; preds = %40, %33
  %52 = load i32, i32* %4, align 4
  %53 = sext i32 %52 to i64
  %54 = getelementptr inbounds [1000 x i8], [1000 x i8]* %2, i64 0, i64 %53
  %55 = load i8, i8* %54, align 1
  %56 = sext i8 %55 to i32
  %57 = icmp eq i32 %56, 40
  br i1 %57, label %58, label %100

58:                                               ; preds = %51
  store i32 1, i32* %6, align 4
  %59 = load i32, i32* %4, align 4
  %60 = add nsw i32 %59, 1
  store i32 %60, i32* %5, align 4
  br label %61

61:                                               ; preds = %96, %58
  %62 = load i32, i32* %5, align 4
  %63 = load i32, i32* %3, align 4
  %64 = icmp slt i32 %62, %63
  br i1 %64, label %65, label %99

65:                                               ; preds = %61
  %66 = load i32, i32* %5, align 4
  %67 = sext i32 %66 to i64
  %68 = getelementptr inbounds [1000 x i8], [1000 x i8]* %2, i64 0, i64 %67
  %69 = load i8, i8* %68, align 1
  %70 = sext i8 %69 to i32
  %71 = icmp eq i32 %70, 40
  br i1 %71, label %72, label %75

72:                                               ; preds = %65
  %73 = load i32, i32* %6, align 4
  %74 = add nsw i32 %73, 1
  store i32 %74, i32* %6, align 4
  br label %75

75:                                               ; preds = %72, %65
  %76 = load i32, i32* %5, align 4
  %77 = sext i32 %76 to i64
  %78 = getelementptr inbounds [1000 x i8], [1000 x i8]* %2, i64 0, i64 %77
  %79 = load i8, i8* %78, align 1
  %80 = sext i8 %79 to i32
  %81 = icmp eq i32 %80, 41
  br i1 %81, label %82, label %85

82:                                               ; preds = %75
  %83 = load i32, i32* %6, align 4
  %84 = add nsw i32 %83, -1
  store i32 %84, i32* %6, align 4
  br label %85

85:                                               ; preds = %82, %75
  %86 = load i32, i32* %6, align 4
  %87 = icmp eq i32 %86, 0
  br i1 %87, label %88, label %95

88:                                               ; preds = %85
  %89 = load i32, i32* %4, align 4
  %90 = sext i32 %89 to i64
  %91 = getelementptr inbounds [1000 x i8], [1000 x i8]* %2, i64 0, i64 %90
  store i8 32, i8* %91, align 1
  %92 = load i32, i32* %5, align 4
  %93 = sext i32 %92 to i64
  %94 = getelementptr inbounds [1000 x i8], [1000 x i8]* %2, i64 0, i64 %93
  store i8 32, i8* %94, align 1
  br label %99

95:                                               ; preds = %85
  br label %96

96:                                               ; preds = %95
  %97 = load i32, i32* %5, align 4
  %98 = add nsw i32 %97, 1
  store i32 %98, i32* %5, align 4
  br label %61

99:                                               ; preds = %88, %61
  br label %100

100:                                              ; preds = %99, %51
  br label %101

101:                                              ; preds = %100, %47
  br label %102

102:                                              ; preds = %101, %32
  %103 = load i32, i32* %4, align 4
  %104 = add nsw i32 %103, 1
  store i32 %104, i32* %4, align 4
  br label %21

105:                                              ; preds = %21
  store i32 0, i32* %4, align 4
  br label %106

106:                                              ; preds = %137, %105
  %107 = load i32, i32* %4, align 4
  %108 = load i32, i32* %3, align 4
  %109 = icmp slt i32 %107, %108
  br i1 %109, label %110, label %140

110:                                              ; preds = %106
  %111 = load i32, i32* %4, align 4
  %112 = sext i32 %111 to i64
  %113 = getelementptr inbounds [1000 x i8], [1000 x i8]* %2, i64 0, i64 %112
  %114 = load i8, i8* %113, align 1
  %115 = sext i8 %114 to i32
  %116 = icmp eq i32 %115, 40
  br i1 %116, label %117, label %119

117:                                              ; preds = %110
  %118 = call i32 (i8*, ...) @printf(i8* getelementptr inbounds ([2 x i8], [2 x i8]* @.str, i64 0, i64 0))
  br label %136

119:                                              ; preds = %110
  %120 = load i32, i32* %4, align 4
  %121 = sext i32 %120 to i64
  %122 = getelementptr inbounds [1000 x i8], [1000 x i8]* %2, i64 0, i64 %121
  %123 = load i8, i8* %122, align 1
  %124 = sext i8 %123 to i32
  %125 = icmp eq i32 %124, 41
  br i1 %125, label %126, label %128

126:                                              ; preds = %119
  %127 = call i32 (i8*, ...) @printf(i8* getelementptr inbounds ([2 x i8], [2 x i8]* @.str.1, i64 0, i64 0))
  br label %135

128:                                              ; preds = %119
  %129 = load i32, i32* %4, align 4
  %130 = sext i32 %129 to i64
  %131 = getelementptr inbounds [1000 x i8], [1000 x i8]* %2, i64 0, i64 %130
  %132 = load i8, i8* %131, align 1
  %133 = sext i8 %132 to i32
  %134 = call i32 (i8*, ...) @printf(i8* getelementptr inbounds ([3 x i8], [3 x i8]* @.str.2, i64 0, i64 0), i32 %133)
  br label %135

135:                                              ; preds = %128, %126
  br label %136

136:                                              ; preds = %135, %117
  br label %137

137:                                              ; preds = %136
  %138 = load i32, i32* %4, align 4
  %139 = add nsw i32 %138, 1
  store i32 %139, i32* %4, align 4
  br label %106

140:                                              ; preds = %106
  %141 = call i32 (i8*, ...) @printf(i8* getelementptr inbounds ([2 x i8], [2 x i8]* @.str.3, i64 0, i64 0))
  store i32 0, i32* %4, align 4
  br label %142

142:                                              ; preds = %150, %140
  %143 = load i32, i32* %4, align 4
  %144 = load i32, i32* %3, align 4
  %145 = icmp slt i32 %143, %144
  br i1 %145, label %146, label %153

146:                                              ; preds = %142
  %147 = load i32, i32* %4, align 4
  %148 = sext i32 %147 to i64
  %149 = getelementptr inbounds [1000 x i8], [1000 x i8]* %2, i64 0, i64 %148
  store i8 0, i8* %149, align 1
  br label %150

150:                                              ; preds = %146
  %151 = load i32, i32* %4, align 4
  %152 = add nsw i32 %151, 1
  store i32 %152, i32* %4, align 4
  br label %142

153:                                              ; preds = %142
  br label %7

154:                                              ; preds = %14
  ret i32 0
}

declare dso_local i32 @gets(...) #1

declare dso_local i32 @puts(i8*) #1

; Function Attrs: nounwind readonly
declare dso_local i64 @strlen(i8*) #2

declare dso_local i32 @printf(i8*, ...) #1


!llvm.module.flags = !{!0}
!llvm.ident = !{!1}

!0 = !{i32 1, !"wchar_size", i32 4}
!1 = !{!"clang version 10.0.0-4ubuntu1 "}
